target datalayout = "e-m:e-p270:32:32-p271:32:32-p272:64:64-i64:64-i128:128-f80:128-n8:16:32:64-S128"
target triple = "x86_64-pc-linux-gnu"

@.str.3 = private unnamed_addr constant [2 x i8] c"\0A\00", align 1
@.str.4 = private unnamed_addr constant [52 x i8] c"    equiv_miter [options] miter_module [selection]\0A\00", align 1
@.str.5 = private unnamed_addr constant [80 x i8] c"This creates a miter module for further analysis of the selected $equiv cells.\0A\00", align 1
@.str.6 = private unnamed_addr constant [14 x i8] c"    -trigger\0A\00", align 1
@.str.7 = private unnamed_addr constant [33 x i8] c"        Create a trigger output\0A\00", align 1
@.str.8 = private unnamed_addr constant [10 x i8] c"    -cmp\0A\00", align 1
@.str.9 = private unnamed_addr constant [67 x i8] c"        Create cmp_* outputs for individual unproven $equiv cells\0A\00", align 1
@.str.10 = private unnamed_addr constant [13 x i8] c"    -assert\0A\00", align 1
@.str.11 = private unnamed_addr constant [61 x i8] c"        Create a $assert cell for each unproven $equiv cell\0A\00", align 1
@.str.12 = private unnamed_addr constant [12 x i8] c"    -undef\0A\00", align 1
@.str.13 = private unnamed_addr constant [60 x i8] c"        Create compare logic that handles undefs correctly\0A\00", align 1

; Function Attrs: mustprogress uwtable
define internal void @_ZN12_GLOBAL__N_114EquivMiterPass4helpEv(ptr noundef nonnull align 8 dereferenceable(104) %0) unnamed_addr #4 align 2 {
  %2 = alloca ptr, align 8
  store ptr %0, ptr %2, align 8
  call void (ptr, ...) @_ZN5Yosys3logEPKcz(ptr noundef @.str.3)
  call void (ptr, ...) @_ZN5Yosys3logEPKcz(ptr noundef @.str.4)
  call void (ptr, ...) @_ZN5Yosys3logEPKcz(ptr noundef @.str.3)
  call void (ptr, ...) @_ZN5Yosys3logEPKcz(ptr noundef @.str.5)
  call void (ptr, ...) @_ZN5Yosys3logEPKcz(ptr noundef @.str.3)
  call void (ptr, ...) @_ZN5Yosys3logEPKcz(ptr noundef @.str.6)
  call void (ptr, ...) @_ZN5Yosys3logEPKcz(ptr noundef @.str.7)
  call void (ptr, ...) @_ZN5Yosys3logEPKcz(ptr noundef @.str.3)
  call void (ptr, ...) @_ZN5Yosys3logEPKcz(ptr noundef @.str.8)
  call void (ptr, ...) @_ZN5Yosys3logEPKcz(ptr noundef @.str.9)
  call void (ptr, ...) @_ZN5Yosys3logEPKcz(ptr noundef @.str.3)
  call void (ptr, ...) @_ZN5Yosys3logEPKcz(ptr noundef @.str.10)
  call void (ptr, ...) @_ZN5Yosys3logEPKcz(ptr noundef @.str.11)
  call void (ptr, ...) @_ZN5Yosys3logEPKcz(ptr noundef @.str.3)
  call void (ptr, ...) @_ZN5Yosys3logEPKcz(ptr noundef @.str.12)
  call void (ptr, ...) @_ZN5Yosys3logEPKcz(ptr noundef @.str.13)
  call void (ptr, ...) @_ZN5Yosys3logEPKcz(ptr noundef @.str.3)
  ret void
}